target datalayout = "e-m:e-p270:32:32-p271:32:32-p272:64:64-i64:64-i128:128-f80:128-n8:16:32:64-S128"
target triple = "x86_64-pc-linux-gnu"

%struct._generic_SUNLinearSolver = type { ptr, ptr, ptr }
%struct._generic_SUNLinearSolver_Ops = type { ptr, ptr, ptr, ptr, ptr, ptr, ptr, ptr, ptr, ptr, ptr, ptr, ptr, ptr, ptr }
%struct._SUNLinearSolverContent_SPFGMR = type { i32, i32, i32, i32, i32, i32, double, i32, ptr, ptr, ptr, ptr, ptr, ptr, ptr, ptr, ptr, ptr, ptr, ptr, ptr, ptr, ptr, ptr }

; Function Attrs: nounwind uwtable
define ptr @SUNLinSol_SPFGMR(ptr noundef %0, i32 noundef %1, i32 noundef %2, ptr noundef %3) #0 {
  %5 = alloca ptr, align 8
  %6 = alloca i32, align 4
  %7 = alloca i32, align 4
  %8 = alloca ptr, align 8
  %9 = alloca ptr, align 8
  %10 = alloca ptr, align 8
  %11 = alloca ptr, align 8
  store ptr %0, ptr %5, align 8, !tbaa !3
  store i32 %1, ptr %6, align 4, !tbaa !8
  store i32 %2, ptr %7, align 4, !tbaa !8
  store ptr %3, ptr %8, align 8, !tbaa !10
  call void @llvm.lifetime.start.p0(i64 8, ptr %9) #6
  %12 = load ptr, ptr %8, align 8, !tbaa !10
  store ptr %12, ptr %9, align 8, !tbaa !10
  call void @llvm.lifetime.start.p0(i64 8, ptr %10) #6
  call void @llvm.lifetime.start.p0(i64 8, ptr %11) #6
  %13 = load i32, ptr %6, align 4, !tbaa !8
  %14 = icmp eq i32 %13, 1
  br i1 %14, label %21, label %15

15:                                               ; preds = %4
  %16 = load i32, ptr %6, align 4, !tbaa !8
  %17 = icmp eq i32 %16, 2
  br i1 %17, label %21, label %18

18:                                               ; preds = %15
  %19 = load i32, ptr %6, align 4, !tbaa !8
  %20 = icmp eq i32 %19, 3
  br label %21

21:                                               ; preds = %18, %15, %4
  %22 = phi i1 [ true, %15 ], [ true, %4 ], [ %20, %18 ]
  %23 = select i1 %22, i32 2, i32 0
  store i32 %23, ptr %6, align 4, !tbaa !8
  %24 = load i32, ptr %7, align 4, !tbaa !8
  %25 = icmp sle i32 %24, 0
  br i1 %25, label %26, label %27

26:                                               ; preds = %21
  store i32 5, ptr %7, align 4, !tbaa !8
  br label %27

27:                                               ; preds = %26, %21
  store ptr null, ptr %10, align 8, !tbaa !12
  %28 = load ptr, ptr %8, align 8, !tbaa !10
  %29 = call ptr @SUNLinSolNewEmpty(ptr noundef %28)
  store ptr %29, ptr %10, align 8, !tbaa !12
  %30 = load ptr, ptr %10, align 8, !tbaa !12
  %31 = getelementptr inbounds nuw %struct._generic_SUNLinearSolver, ptr %30, i32 0, i32 1
  %32 = load ptr, ptr %31, align 8, !tbaa !14
  %33 = getelementptr inbounds nuw %struct._generic_SUNLinearSolver_Ops, ptr %32, i32 0, i32 0
  store ptr @SUNLinSolGetType_SPFGMR, ptr %33, align 8, !tbaa !17
  %34 = load ptr, ptr %10, align 8, !tbaa !12
  %35 = getelementptr inbounds nuw %struct._generic_SUNLinearSolver, ptr %34, i32 0, i32 1
  %36 = load ptr, ptr %35, align 8, !tbaa !14
  %37 = getelementptr inbounds nuw %struct._generic_SUNLinearSolver_Ops, ptr %36, i32 0, i32 1
  store ptr @SUNLinSolGetID_SPFGMR, ptr %37, align 8, !tbaa !19
  %38 = load ptr, ptr %10, align 8, !tbaa !12
  %39 = getelementptr inbounds nuw %struct._generic_SUNLinearSolver, ptr %38, i32 0, i32 1
  %40 = load ptr, ptr %39, align 8, !tbaa !14
  %41 = getelementptr inbounds nuw %struct._generic_SUNLinearSolver_Ops, ptr %40, i32 0, i32 2
  store ptr @SUNLinSolSetATimes_SPFGMR, ptr %41, align 8, !tbaa !20
  %42 = load ptr, ptr %10, align 8, !tbaa !12
  %43 = getelementptr inbounds nuw %struct._generic_SUNLinearSolver, ptr %42, i32 0, i32 1
  %44 = load ptr, ptr %43, align 8, !tbaa !14
  %45 = getelementptr inbounds nuw %struct._generic_SUNLinearSolver_Ops, ptr %44, i32 0, i32 3
  store ptr @SUNLinSolSetPreconditioner_SPFGMR, ptr %45, align 8, !tbaa !21
  %46 = load ptr, ptr %10, align 8, !tbaa !12
  %47 = getelementptr inbounds nuw %struct._generic_SUNLinearSolver, ptr %46, i32 0, i32 1
  %48 = load ptr, ptr %47, align 8, !tbaa !14
  %49 = getelementptr inbounds nuw %struct._generic_SUNLinearSolver_Ops, ptr %48, i32 0, i32 4
  store ptr @SUNLinSolSetScalingVectors_SPFGMR, ptr %49, align 8, !tbaa !22
  %50 = load ptr, ptr %10, align 8, !tbaa !12
  %51 = getelementptr inbounds nuw %struct._generic_SUNLinearSolver, ptr %50, i32 0, i32 1
  %52 = load ptr, ptr %51, align 8, !tbaa !14
  %53 = getelementptr inbounds nuw %struct._generic_SUNLinearSolver_Ops, ptr %52, i32 0, i32 5
  store ptr @SUNLinSolSetZeroGuess_SPFGMR, ptr %53, align 8, !tbaa !23
  %54 = load ptr, ptr %10, align 8, !tbaa !12
  %55 = getelementptr inbounds nuw %struct._generic_SUNLinearSolver, ptr %54, i32 0, i32 1
  %56 = load ptr, ptr %55, align 8, !tbaa !14
  %57 = getelementptr inbounds nuw %struct._generic_SUNLinearSolver_Ops, ptr %56, i32 0, i32 6
  store ptr @SUNLinSolInitialize_SPFGMR, ptr %57, align 8, !tbaa !24
  %58 = load ptr, ptr %10, align 8, !tbaa !12
  %59 = getelementptr inbounds nuw %struct._generic_SUNLinearSolver, ptr %58, i32 0, i32 1
  %60 = load ptr, ptr %59, align 8, !tbaa !14
  %61 = getelementptr inbounds nuw %struct._generic_SUNLinearSolver_Ops, ptr %60, i32 0, i32 7
  store ptr @SUNLinSolSetup_SPFGMR, ptr %61, align 8, !tbaa !25
  %62 = load ptr, ptr %10, align 8, !tbaa !12
  %63 = getelementptr inbounds nuw %struct._generic_SUNLinearSolver, ptr %62, i32 0, i32 1
  %64 = load ptr, ptr %63, align 8, !tbaa !14
  %65 = getelementptr inbounds nuw %struct._generic_SUNLinearSolver_Ops, ptr %64, i32 0, i32 8
  store ptr @SUNLinSolSolve_SPFGMR, ptr %65, align 8, !tbaa !26
  %66 = load ptr, ptr %10, align 8, !tbaa !12
  %67 = getelementptr inbounds nuw %struct._generic_SUNLinearSolver, ptr %66, i32 0, i32 1
  %68 = load ptr, ptr %67, align 8, !tbaa !14
  %69 = getelementptr inbounds nuw %struct._generic_SUNLinearSolver_Ops, ptr %68, i32 0, i32 9
  store ptr @SUNLinSolNumIters_SPFGMR, ptr %69, align 8, !tbaa !27
  %70 = load ptr, ptr %10, align 8, !tbaa !12
  %71 = getelementptr inbounds nuw %struct._generic_SUNLinearSolver, ptr %70, i32 0, i32 1
  %72 = load ptr, ptr %71, align 8, !tbaa !14
  %73 = getelementptr inbounds nuw %struct._generic_SUNLinearSolver_Ops, ptr %72, i32 0, i32 10
  store ptr @SUNLinSolResNorm_SPFGMR, ptr %73, align 8, !tbaa !28
  %74 = load ptr, ptr %10, align 8, !tbaa !12
  %75 = getelementptr inbounds nuw %struct._generic_SUNLinearSolver, ptr %74, i32 0, i32 1
  %76 = load ptr, ptr %75, align 8, !tbaa !14
  %77 = getelementptr inbounds nuw %struct._generic_SUNLinearSolver_Ops, ptr %76, i32 0, i32 13
  store ptr @SUNLinSolResid_SPFGMR, ptr %77, align 8, !tbaa !29
  %78 = load ptr, ptr %10, align 8, !tbaa !12
  %79 = getelementptr inbounds nuw %struct._generic_SUNLinearSolver, ptr %78, i32 0, i32 1
  %80 = load ptr, ptr %79, align 8, !tbaa !14
  %81 = getelementptr inbounds nuw %struct._generic_SUNLinearSolver_Ops, ptr %80, i32 0, i32 11
  store ptr @SUNLinSolLastFlag_SPFGMR, ptr %81, align 8, !tbaa !30
  %82 = load ptr, ptr %10, align 8, !tbaa !12
  %83 = getelementptr inbounds nuw %struct._generic_SUNLinearSolver, ptr %82, i32 0, i32 1
  %84 = load ptr, ptr %83, align 8, !tbaa !14
  %85 = getelementptr inbounds nuw %struct._generic_SUNLinearSolver_Ops, ptr %84, i32 0, i32 12
  store ptr @SUNLinSolSpace_SPFGMR, ptr %85, align 8, !tbaa !31
  %86 = load ptr, ptr %10, align 8, !tbaa !12
  %87 = getelementptr inbounds nuw %struct._generic_SUNLinearSolver, ptr %86, i32 0, i32 1
  %88 = load ptr, ptr %87, align 8, !tbaa !14
  %89 = getelementptr inbounds nuw %struct._generic_SUNLinearSolver_Ops, ptr %88, i32 0, i32 14
  store ptr @SUNLinSolFree_SPFGMR, ptr %89, align 8, !tbaa !32
  store ptr null, ptr %11, align 8, !tbaa !33
  %90 = call noalias ptr @malloc(i64 noundef 168) #7
  store ptr %90, ptr %11, align 8, !tbaa !33
  %91 = load ptr, ptr %11, align 8, !tbaa !33
  %92 = load ptr, ptr %10, align 8, !tbaa !12
  %93 = getelementptr inbounds nuw %struct._generic_SUNLinearSolver, ptr %92, i32 0, i32 0
  store ptr %91, ptr %93, align 8, !tbaa !35
  %94 = load ptr, ptr %11, align 8, !tbaa !33
  %95 = getelementptr inbounds nuw %struct._SUNLinearSolverContent_SPFGMR, ptr %94, i32 0, i32 7
  store i32 0, ptr %95, align 8, !tbaa !36
  %96 = load i32, ptr %7, align 4, !tbaa !8
  %97 = load ptr, ptr %11, align 8, !tbaa !33
  %98 = getelementptr inbounds nuw %struct._SUNLinearSolverContent_SPFGMR, ptr %97, i32 0, i32 0
  store i32 %96, ptr %98, align 8, !tbaa !42
  %99 = load i32, ptr %6, align 4, !tbaa !8
  %100 = load ptr, ptr %11, align 8, !tbaa !33
  %101 = getelementptr inbounds nuw %struct._SUNLinearSolverContent_SPFGMR, ptr %100, i32 0, i32 1
  store i32 %99, ptr %101, align 4, !tbaa !43
  %102 = load ptr, ptr %11, align 8, !tbaa !33
  %103 = getelementptr inbounds nuw %struct._SUNLinearSolverContent_SPFGMR, ptr %102, i32 0, i32 2
  store i32 1, ptr %103, align 8, !tbaa !44
  %104 = load ptr, ptr %11, align 8, !tbaa !33
  %105 = getelementptr inbounds nuw %struct._SUNLinearSolverContent_SPFGMR, ptr %104, i32 0, i32 3
  store i32 0, ptr %105, align 4, !tbaa !45
  %106 = load ptr, ptr %11, align 8, !tbaa !33
  %107 = getelementptr inbounds nuw %struct._SUNLinearSolverContent_SPFGMR, ptr %106, i32 0, i32 4
  store i32 0, ptr %107, align 8, !tbaa !46
  %108 = load ptr, ptr %11, align 8, !tbaa !33
  %109 = getelementptr inbounds nuw %struct._SUNLinearSolverContent_SPFGMR, ptr %108, i32 0, i32 5
  store i32 0, ptr %109, align 4, !tbaa !47
  %110 = load ptr, ptr %11, align 8, !tbaa !33
  %111 = getelementptr inbounds nuw %struct._SUNLinearSolverContent_SPFGMR, ptr %110, i32 0, i32 6
  store double 0.000000e+00, ptr %111, align 8, !tbaa !48
  %112 = load ptr, ptr %11, align 8, !tbaa !33
  %113 = getelementptr inbounds nuw %struct._SUNLinearSolverContent_SPFGMR, ptr %112, i32 0, i32 19
  store ptr null, ptr %113, align 8, !tbaa !49
  %114 = load ptr, ptr %11, align 8, !tbaa !33
  %115 = getelementptr inbounds nuw %struct._SUNLinearSolverContent_SPFGMR, ptr %114, i32 0, i32 21
  store ptr null, ptr %115, align 8, !tbaa !50
  %116 = load ptr, ptr %11, align 8, !tbaa !33
  %117 = getelementptr inbounds nuw %struct._SUNLinearSolverContent_SPFGMR, ptr %116, i32 0, i32 13
  store ptr null, ptr %117, align 8, !tbaa !51
  %118 = load ptr, ptr %11, align 8, !tbaa !33
  %119 = getelementptr inbounds nuw %struct._SUNLinearSolverContent_SPFGMR, ptr %118, i32 0, i32 14
  store ptr null, ptr %119, align 8, !tbaa !52
  %120 = load ptr, ptr %11, align 8, !tbaa !33
  %121 = getelementptr inbounds nuw %struct._SUNLinearSolverContent_SPFGMR, ptr %120, i32 0, i32 8
  store ptr null, ptr %121, align 8, !tbaa !53
  %122 = load ptr, ptr %11, align 8, !tbaa !33
  %123 = getelementptr inbounds nuw %struct._SUNLinearSolverContent_SPFGMR, ptr %122, i32 0, i32 9
  store ptr null, ptr %123, align 8, !tbaa !54
  %124 = load ptr, ptr %11, align 8, !tbaa !33
  %125 = getelementptr inbounds nuw %struct._SUNLinearSolverContent_SPFGMR, ptr %124, i32 0, i32 10
  store ptr null, ptr %125, align 8, !tbaa !55
  %126 = load ptr, ptr %11, align 8, !tbaa !33
  %127 = getelementptr inbounds nuw %struct._SUNLinearSolverContent_SPFGMR, ptr %126, i32 0, i32 11
  store ptr null, ptr %127, align 8, !tbaa !56
  %128 = load ptr, ptr %11, align 8, !tbaa !33
  %129 = getelementptr inbounds nuw %struct._SUNLinearSolverContent_SPFGMR, ptr %128, i32 0, i32 12
  store ptr null, ptr %129, align 8, !tbaa !57
  %130 = load ptr, ptr %11, align 8, !tbaa !33
  %131 = getelementptr inbounds nuw %struct._SUNLinearSolverContent_SPFGMR, ptr %130, i32 0, i32 15
  store ptr null, ptr %131, align 8, !tbaa !58
  %132 = load ptr, ptr %11, align 8, !tbaa !33
  %133 = getelementptr inbounds nuw %struct._SUNLinearSolverContent_SPFGMR, ptr %132, i32 0, i32 16
  store ptr null, ptr %133, align 8, !tbaa !59
  %134 = load ptr, ptr %11, align 8, !tbaa !33
  %135 = getelementptr inbounds nuw %struct._SUNLinearSolverContent_SPFGMR, ptr %134, i32 0, i32 17
  store ptr null, ptr %135, align 8, !tbaa !60
  %136 = load ptr, ptr %11, align 8, !tbaa !33
  %137 = getelementptr inbounds nuw %struct._SUNLinearSolverContent_SPFGMR, ptr %136, i32 0, i32 18
  store ptr null, ptr %137, align 8, !tbaa !61
  %138 = load ptr, ptr %11, align 8, !tbaa !33
  %139 = getelementptr inbounds nuw %struct._SUNLinearSolverContent_SPFGMR, ptr %138, i32 0, i32 20
  store ptr null, ptr %139, align 8, !tbaa !62
  %140 = load ptr, ptr %11, align 8, !tbaa !33
  %141 = getelementptr inbounds nuw %struct._SUNLinearSolverContent_SPFGMR, ptr %140, i32 0, i32 22
  store ptr null, ptr %141, align 8, !tbaa !63
  %142 = load ptr, ptr %11, align 8, !tbaa !33
  %143 = getelementptr inbounds nuw %struct._SUNLinearSolverContent_SPFGMR, ptr %142, i32 0, i32 23
  store ptr null, ptr %143, align 8, !tbaa !64
  %144 = load ptr, ptr %5, align 8, !tbaa !3
  %145 = call ptr @N_VClone(ptr noundef %144)
  %146 = load ptr, ptr %11, align 8, !tbaa !33
  %147 = getelementptr inbounds nuw %struct._SUNLinearSolverContent_SPFGMR, ptr %146, i32 0, i32 19
  store ptr %145, ptr %147, align 8, !tbaa !49
  %148 = load ptr, ptr %5, align 8, !tbaa !3
  %149 = call ptr @N_VClone(ptr noundef %148)
  %150 = load ptr, ptr %11, align 8, !tbaa !33
  %151 = getelementptr inbounds nuw %struct._SUNLinearSolverContent_SPFGMR, ptr %150, i32 0, i32 21
  store ptr %149, ptr %151, align 8, !tbaa !50
  %152 = load ptr, ptr %10, align 8, !tbaa !12
  call void @llvm.lifetime.end.p0(i64 8, ptr %11) #6
  call void @llvm.lifetime.end.p0(i64 8, ptr %10) #6
  call void @llvm.lifetime.end.p0(i64 8, ptr %9) #6
  ret ptr %152
}