; Function Attrs: nounwind uwtable
define ptr @SUNLinSol_SPFGMR(ptr noundef %0, i32 noundef %1, i32 noundef %2, ptr noundef %3) local_unnamed_addr #0 {
  %5 = add i32 %1, -1
  %6 = icmp ult i32 %5, 3
  %7 = select i1 %6, i32 2, i32 0
  %8 = icmp slt i32 %2, 1
  %spec.store.select = select i1 %8, i32 5, i32 %2
  %9 = tail call ptr @SUNLinSolNewEmpty(ptr noundef %3) #12
  %10 = getelementptr inbounds nuw i8, ptr %9, i64 8
  %11 = load ptr, ptr %10, align 8, !tbaa !3
  store ptr @SUNLinSolGetType_SPFGMR, ptr %11, align 8, !tbaa !10
  %12 = getelementptr inbounds nuw i8, ptr %11, i64 8
  store ptr @SUNLinSolGetID_SPFGMR, ptr %12, align 8, !tbaa !12
  %13 = getelementptr inbounds nuw i8, ptr %11, i64 16
  store ptr @SUNLinSolSetATimes_SPFGMR, ptr %13, align 8, !tbaa !13
  %14 = getelementptr inbounds nuw i8, ptr %11, i64 24
  store ptr @SUNLinSolSetPreconditioner_SPFGMR, ptr %14, align 8, !tbaa !14
  %15 = getelementptr inbounds nuw i8, ptr %11, i64 32
  store ptr @SUNLinSolSetScalingVectors_SPFGMR, ptr %15, align 8, !tbaa !15
  %16 = getelementptr inbounds nuw i8, ptr %11, i64 40
  store ptr @SUNLinSolSetZeroGuess_SPFGMR, ptr %16, align 8, !tbaa !16
  %17 = getelementptr inbounds nuw i8, ptr %11, i64 48
  store ptr @SUNLinSolInitialize_SPFGMR, ptr %17, align 8, !tbaa !17
  %18 = getelementptr inbounds nuw i8, ptr %11, i64 56
  store ptr @SUNLinSolSetup_SPFGMR, ptr %18, align 8, !tbaa !18
  %19 = getelementptr inbounds nuw i8, ptr %11, i64 64
  store ptr @SUNLinSolSolve_SPFGMR, ptr %19, align 8, !tbaa !19
  %20 = getelementptr inbounds nuw i8, ptr %11, i64 72
  store ptr @SUNLinSolNumIters_SPFGMR, ptr %20, align 8, !tbaa !20
  %21 = getelementptr inbounds nuw i8, ptr %11, i64 80
  store ptr @SUNLinSolResNorm_SPFGMR, ptr %21, align 8, !tbaa !21
  %22 = getelementptr inbounds nuw i8, ptr %11, i64 104
  store ptr @SUNLinSolResid_SPFGMR, ptr %22, align 8, !tbaa !22
  %23 = getelementptr inbounds nuw i8, ptr %11, i64 88
  store ptr @SUNLinSolLastFlag_SPFGMR, ptr %23, align 8, !tbaa !23
  %24 = getelementptr inbounds nuw i8, ptr %11, i64 96
  store ptr @SUNLinSolSpace_SPFGMR, ptr %24, align 8, !tbaa !24
  %25 = getelementptr inbounds nuw i8, ptr %11, i64 112
  store ptr @SUNLinSolFree_SPFGMR, ptr %25, align 8, !tbaa !25
  %26 = tail call noalias dereferenceable_or_null(168) ptr @malloc(i64 noundef 168) #13
  store ptr %26, ptr %9, align 8, !tbaa !26
  %27 = getelementptr inbounds nuw i8, ptr %26, i64 32
  store i32 0, ptr %27, align 8, !tbaa !27
  store i32 %spec.store.select, ptr %26, align 8, !tbaa !35
  %28 = getelementptr inbounds nuw i8, ptr %26, i64 4
  store i32 %7, ptr %28, align 4, !tbaa !36
  %29 = getelementptr inbounds nuw i8, ptr %26, i64 8
  store i32 1, ptr %29, align 8, !tbaa !37
  %30 = getelementptr inbounds nuw i8, ptr %26, i64 12
  %31 = getelementptr inbounds nuw i8, ptr %26, i64 128
  %32 = getelementptr inbounds nuw i8, ptr %26, i64 144
  %33 = getelementptr inbounds nuw i8, ptr %26, i64 40
  tail call void @llvm.memset.p0.i64(ptr noundef nonnull align 4 dereferenceable(20) %30, i8 0, i64 20, i1 false)
  tail call void @llvm.memset.p0.i64(ptr noundef nonnull align 8 dereferenceable(128) %33, i8 0, i64 128, i1 false)
  %34 = tail call ptr @N_VClone(ptr noundef %0) #12
  store ptr %34, ptr %31, align 8, !tbaa !38
  %35 = tail call ptr @N_VClone(ptr noundef %0) #12
  store ptr %35, ptr %32, align 8, !tbaa !39
  ret ptr %9
}